; Function Attrs: mustprogress uwtable
define void @_ZN6marisa4Trie5clearEv(ptr noundef nonnull align 8 captures(none) dereferenceable(8) %0) local_unnamed_addr #5 align 2 personality ptr @__gxx_personality_v0 {
  %2 = alloca %"class.marisa::Trie", align 8
  call void @llvm.lifetime.start.p0(i64 8, ptr nonnull %2) #12
  call void @_ZN6marisa4TrieC1Ev(ptr noundef nonnull align 8 dereferenceable(8) %2)
  %3 = load ptr, ptr %2, align 8, !tbaa !20
  %4 = load ptr, ptr %0, align 8, !tbaa !20
  store ptr %4, ptr %2, align 8, !tbaa !20
  store ptr %3, ptr %0, align 8, !tbaa !20
  call void @_ZN6marisa4TrieD1Ev(ptr noundef nonnull align 8 dereferenceable(8) %2) #12
  call void @llvm.lifetime.end.p0(i64 8, ptr nonnull %2) #12
  ret void
}